target datalayout = "e-m:e-p270:32:32-p271:32:32-p272:64:64-i64:64-i128:128-f80:128-n8:16:32:64-S128"
target triple = "x86_64-pc-linux-gnu"

%struct.ParseState = type { ptr, ptr, i32, i32, ptr, ptr, ptr, ptr, ptr, ptr, i8, ptr, ptr, ptr, ptr, ptr, ptr, i8, ptr, i32, i32, ptr, ptr, i8, i8, ptr, i8, i8, i8, i8, i8, ptr, ptr, ptr, ptr, ptr, ptr }
%struct.ForEachState = type { ptr, i32 }
%struct.List = type { i32, i32, i32, ptr, [0 x %union.ListCell] }
%union.ListCell = type { ptr }
%struct.ParseNamespaceItem = type { ptr, ptr, i32, ptr, ptr, i8, i8, i8, i8, i32 }
%struct.Alias = type { i32, ptr, ptr }
%struct.ParseNamespaceColumn = type { i32, i16, i32, i32, i32, i32, i32, i16, i8 }
%struct.Var = type { %struct.Expr, i32, i16, i32, i32, i32, ptr, i32, i32, i32, i16, i32 }
%struct.Expr = type { i32 }
%struct.String = type { i32, ptr }

; Function Attrs: inlinehint nounwind uwtable
define internal ptr @list_nth_cell(ptr noundef %0, i32 noundef %1) #6 {
  %3 = alloca ptr, align 8
  %4 = alloca i32, align 4
  store ptr %0, ptr %3, align 8
  store i32 %1, ptr %4, align 4
  %5 = load ptr, ptr %3, align 8
  %6 = getelementptr inbounds nuw %struct.List, ptr %5, i32 0, i32 3
  %7 = load ptr, ptr %6, align 8
  %8 = load i32, ptr %4, align 4
  %9 = sext i32 %8 to i64
  %10 = getelementptr inbounds %union.ListCell, ptr %7, i64 %9
  ret ptr %10
}

; Function Attrs: inlinehint nounwind uwtable
define internal ptr @list_nth(ptr noundef %0, i32 noundef %1) #6 {
  %3 = alloca ptr, align 8
  %4 = alloca i32, align 4
  store ptr %0, ptr %3, align 8
  store i32 %1, ptr %4, align 4
  %5 = load ptr, ptr %3, align 8
  %6 = load i32, ptr %4, align 4
  %7 = call ptr @list_nth_cell(ptr noundef %5, i32 noundef %6)
  %8 = load ptr, ptr %7, align 8
  ret ptr %8
}

; Function Attrs: inlinehint nounwind uwtable
define internal i32 @list_length(ptr noundef %0) #6 {
  %2 = alloca ptr, align 8
  store ptr %0, ptr %2, align 8
  %3 = load ptr, ptr %2, align 8
  %4 = icmp ne ptr %3, null
  br i1 %4, label %5, label %9

5:                                                ; preds = %1
  %6 = load ptr, ptr %2, align 8
  %7 = getelementptr inbounds nuw %struct.List, ptr %6, i32 0, i32 1
  %8 = load i32, ptr %7, align 4
  br label %10

9:                                                ; preds = %1
  br label %10

10:                                               ; preds = %9, %5
  %11 = phi i32 [ %8, %5 ], [ 0, %9 ]
  ret i32 %11
}

; Function Attrs: nounwind uwtable
define dso_local void @markNullableIfNeeded(ptr noundef %0, ptr noundef %1) #0 {
  %3 = alloca ptr, align 8
  %4 = alloca ptr, align 8
  %5 = alloca i32, align 4
  %6 = alloca ptr, align 8
  %7 = alloca i32, align 4
  store ptr %0, ptr %3, align 8
  store ptr %1, ptr %4, align 8
  call void @llvm.lifetime.start.p0(i64 4, ptr %5) #8
  %8 = load ptr, ptr %4, align 8
  %9 = getelementptr inbounds nuw %struct.Var, ptr %8, i32 0, i32 1
  %10 = load i32, ptr %9, align 4
  store i32 %10, ptr %5, align 4
  call void @llvm.lifetime.start.p0(i64 8, ptr %6) #8
  call void @llvm.lifetime.start.p0(i64 4, ptr %7) #8
  store i32 0, ptr %7, align 4
  br label %11

11:                                               ; preds = %22, %2
  %12 = load i32, ptr %7, align 4
  %13 = load ptr, ptr %4, align 8
  %14 = getelementptr inbounds nuw %struct.Var, ptr %13, i32 0, i32 7
  %15 = load i32, ptr %14, align 8
  %16 = icmp ult i32 %12, %15
  br i1 %16, label %18, label %17

17:                                               ; preds = %11
  call void @llvm.lifetime.end.p0(i64 4, ptr %7) #8
  br label %25

18:                                               ; preds = %11
  %19 = load ptr, ptr %3, align 8
  %20 = getelementptr inbounds nuw %struct.ParseState, ptr %19, i32 0, i32 0
  %21 = load ptr, ptr %20, align 8
  store ptr %21, ptr %3, align 8
  br label %22

22:                                               ; preds = %18
  %23 = load i32, ptr %7, align 4
  %24 = add i32 %23, 1
  store i32 %24, ptr %7, align 4
  br label %11, !llvm.loop !20

25:                                               ; preds = %17
  %26 = load i32, ptr %5, align 4
  %27 = icmp sgt i32 %26, 0
  br i1 %27, label %28, label %42

28:                                               ; preds = %25
  %29 = load i32, ptr %5, align 4
  %30 = load ptr, ptr %3, align 8
  %31 = getelementptr inbounds nuw %struct.ParseState, ptr %30, i32 0, i32 7
  %32 = load ptr, ptr %31, align 8
  %33 = call i32 @list_length(ptr noundef %32)
  %34 = icmp sle i32 %29, %33
  br i1 %34, label %35, label %42

35:                                               ; preds = %28
  %36 = load ptr, ptr %3, align 8
  %37 = getelementptr inbounds nuw %struct.ParseState, ptr %36, i32 0, i32 7
  %38 = load ptr, ptr %37, align 8
  %39 = load i32, ptr %5, align 4
  %40 = sub i32 %39, 1
  %41 = call ptr @list_nth(ptr noundef %38, i32 noundef %40)
  store ptr %41, ptr %6, align 8
  br label %43

42:                                               ; preds = %28, %25
  store ptr null, ptr %6, align 8
  br label %43

43:                                               ; preds = %42, %35
  %44 = load ptr, ptr %6, align 8
  %45 = icmp ne ptr %44, null
  br i1 %45, label %46, label %54

46:                                               ; preds = %43
  %47 = load ptr, ptr %4, align 8
  %48 = getelementptr inbounds nuw %struct.Var, ptr %47, i32 0, i32 6
  %49 = load ptr, ptr %48, align 8
  %50 = load ptr, ptr %6, align 8
  %51 = call ptr @bms_union(ptr noundef %49, ptr noundef %50)
  %52 = load ptr, ptr %4, align 8
  %53 = getelementptr inbounds nuw %struct.Var, ptr %52, i32 0, i32 6
  store ptr %51, ptr %53, align 8
  br label %54

54:                                               ; preds = %46, %43
  call void @llvm.lifetime.end.p0(i64 8, ptr %6) #8
  call void @llvm.lifetime.end.p0(i64 4, ptr %5) #8
  ret void
}

; Function Attrs: nounwind uwtable
define dso_local ptr @expandNSItemVars(ptr noundef %0, ptr noundef %1, i32 noundef %2, i32 noundef %3, ptr noundef %4) #0 {
  %6 = alloca ptr, align 8
  %7 = alloca ptr, align 8
  %8 = alloca i32, align 4
  %9 = alloca i32, align 4
  %10 = alloca ptr, align 8
  %11 = alloca ptr, align 8
  %12 = alloca i32, align 4
  %13 = alloca ptr, align 8
  %14 = alloca %struct.ForEachState, align 8
  %15 = alloca ptr, align 8
  %16 = alloca ptr, align 8
  %17 = alloca ptr, align 8
  %18 = alloca ptr, align 8
  store ptr %0, ptr %6, align 8
  store ptr %1, ptr %7, align 8
  store i32 %2, ptr %8, align 4
  store i32 %3, ptr %9, align 4
  store ptr %4, ptr %10, align 8
  call void @llvm.lifetime.start.p0(i64 8, ptr %11) #8
  store ptr null, ptr %11, align 8
  call void @llvm.lifetime.start.p0(i64 4, ptr %12) #8
  call void @llvm.lifetime.start.p0(i64 8, ptr %13) #8
  %19 = load ptr, ptr %10, align 8
  %20 = icmp ne ptr %19, null
  br i1 %20, label %21, label %23

21:                                               ; preds = %5
  %22 = load ptr, ptr %10, align 8
  store ptr null, ptr %22, align 8
  br label %23

23:                                               ; preds = %21, %5
  store i32 0, ptr %12, align 4
  call void @llvm.lifetime.start.p0(i64 16, ptr %14) #8
  %24 = getelementptr inbounds nuw %struct.ForEachState, ptr %14, i32 0, i32 0
  %25 = load ptr, ptr %7, align 8
  %26 = getelementptr inbounds nuw %struct.ParseNamespaceItem, ptr %25, i32 0, i32 0
  %27 = load ptr, ptr %26, align 8
  %28 = getelementptr inbounds nuw %struct.Alias, ptr %27, i32 0, i32 2
  %29 = load ptr, ptr %28, align 8
  store ptr %29, ptr %24, align 8
  %30 = getelementptr inbounds nuw %struct.ForEachState, ptr %14, i32 0, i32 1
  store i32 0, ptr %30, align 8
  %31 = getelementptr i8, ptr %14, i64 12
  call void @llvm.memset.p0.i64(ptr align 4 %31, i8 0, i64 4, i1 false)
  br label %32

32:                                               ; preds = %135, %23
  %33 = getelementptr inbounds nuw %struct.ForEachState, ptr %14, i32 0, i32 0
  %34 = load ptr, ptr %33, align 8
  %35 = icmp ne ptr %34, null
  br i1 %35, label %36, label %53

36:                                               ; preds = %32
  %37 = getelementptr inbounds nuw %struct.ForEachState, ptr %14, i32 0, i32 1
  %38 = load i32, ptr %37, align 8
  %39 = getelementptr inbounds nuw %struct.ForEachState, ptr %14, i32 0, i32 0
  %40 = load ptr, ptr %39, align 8
  %41 = getelementptr inbounds nuw %struct.List, ptr %40, i32 0, i32 1
  %42 = load i32, ptr %41, align 4
  %43 = icmp slt i32 %38, %42
  br i1 %43, label %44, label %53

44:                                               ; preds = %36
  %45 = getelementptr inbounds nuw %struct.ForEachState, ptr %14, i32 0, i32 0
  %46 = load ptr, ptr %45, align 8
  %47 = getelementptr inbounds nuw %struct.List, ptr %46, i32 0, i32 3
  %48 = load ptr, ptr %47, align 8
  %49 = getelementptr inbounds nuw %struct.ForEachState, ptr %14, i32 0, i32 1
  %50 = load i32, ptr %49, align 8
  %51 = sext i32 %50 to i64
  %52 = getelementptr inbounds %union.ListCell, ptr %48, i64 %51
  store ptr %52, ptr %13, align 8
  br label %54

53:                                               ; preds = %36, %32
  store ptr null, ptr %13, align 8
  br label %54

54:                                               ; preds = %53, %44
  %55 = phi i32 [ 1, %44 ], [ 0, %53 ]
  %56 = icmp ne i32 %55, 0
  br i1 %56, label %58, label %57

57:                                               ; preds = %54
  call void @llvm.lifetime.end.p0(i64 16, ptr %14) #8
  br label %139

58:                                               ; preds = %54
  call void @llvm.lifetime.start.p0(i64 8, ptr %15) #8
  %59 = load ptr, ptr %13, align 8
  %60 = load ptr, ptr %59, align 8
  store ptr %60, ptr %15, align 8
  call void @llvm.lifetime.start.p0(i64 8, ptr %16) #8
  %61 = load ptr, ptr %15, align 8
  %62 = getelementptr inbounds nuw %struct.String, ptr %61, i32 0, i32 1
  %63 = load ptr, ptr %62, align 8
  store ptr %63, ptr %16, align 8
  call void @llvm.lifetime.start.p0(i64 8, ptr %17) #8
  %64 = load ptr, ptr %7, align 8
  %65 = getelementptr inbounds nuw %struct.ParseNamespaceItem, ptr %64, i32 0, i32 4
  %66 = load ptr, ptr %65, align 8
  %67 = load i32, ptr %12, align 4
  %68 = sext i32 %67 to i64
  %69 = getelementptr inbounds %struct.ParseNamespaceColumn, ptr %66, i64 %68
  store ptr %69, ptr %17, align 8
  %70 = load ptr, ptr %17, align 8
  %71 = getelementptr inbounds nuw %struct.ParseNamespaceColumn, ptr %70, i32 0, i32 8
  %72 = load i8, ptr %71, align 2, !range !6, !noundef !7
  %73 = trunc i8 %72 to i1
  br i1 %73, label %74, label %75

74:                                               ; preds = %58
  br label %132

75:                                               ; preds = %58
  %76 = load ptr, ptr %16, align 8
  %77 = getelementptr inbounds i8, ptr %76, i64 0
  %78 = load i8, ptr %77, align 1
  %79 = icmp ne i8 %78, 0
  br i1 %79, label %80, label %130

80:                                               ; preds = %75
  call void @llvm.lifetime.start.p0(i64 8, ptr %18) #8
  %81 = load ptr, ptr %17, align 8
  %82 = getelementptr inbounds nuw %struct.ParseNamespaceColumn, ptr %81, i32 0, i32 0
  %83 = load i32, ptr %82, align 4
  %84 = load ptr, ptr %17, align 8
  %85 = getelementptr inbounds nuw %struct.ParseNamespaceColumn, ptr %84, i32 0, i32 1
  %86 = load i16, ptr %85, align 4
  %87 = load ptr, ptr %17, align 8
  %88 = getelementptr inbounds nuw %struct.ParseNamespaceColumn, ptr %87, i32 0, i32 2
  %89 = load i32, ptr %88, align 4
  %90 = load ptr, ptr %17, align 8
  %91 = getelementptr inbounds nuw %struct.ParseNamespaceColumn, ptr %90, i32 0, i32 3
  %92 = load i32, ptr %91, align 4
  %93 = load ptr, ptr %17, align 8
  %94 = getelementptr inbounds nuw %struct.ParseNamespaceColumn, ptr %93, i32 0, i32 4
  %95 = load i32, ptr %94, align 4
  %96 = load i32, ptr %8, align 4
  %97 = call ptr @makeVar(i32 noundef %83, i16 noundef signext %86, i32 noundef %89, i32 noundef %92, i32 noundef %95, i32 noundef %96)
  store ptr %97, ptr %18, align 8
  %98 = load ptr, ptr %17, align 8
  %99 = getelementptr inbounds nuw %struct.ParseNamespaceColumn, ptr %98, i32 0, i32 5
  %100 = load i32, ptr %99, align 4
  %101 = load ptr, ptr %18, align 8
  %102 = getelementptr inbounds nuw %struct.Var, ptr %101, i32 0, i32 8
  store i32 %100, ptr %102, align 4
  %103 = load ptr, ptr %17, align 8
  %104 = getelementptr inbounds nuw %struct.ParseNamespaceColumn, ptr %103, i32 0, i32 6
  %105 = load i32, ptr %104, align 4
  %106 = load ptr, ptr %18, align 8
  %107 = getelementptr inbounds nuw %struct.Var, ptr %106, i32 0, i32 9
  store i32 %105, ptr %107, align 8
  %108 = load ptr, ptr %17, align 8
  %109 = getelementptr inbounds nuw %struct.ParseNamespaceColumn, ptr %108, i32 0, i32 7
  %110 = load i16, ptr %109, align 4
  %111 = load ptr, ptr %18, align 8
  %112 = getelementptr inbounds nuw %struct.Var, ptr %111, i32 0, i32 10
  store i16 %110, ptr %112, align 4
  %113 = load i32, ptr %9, align 4
  %114 = load ptr, ptr %18, align 8
  %115 = getelementptr inbounds nuw %struct.Var, ptr %114, i32 0, i32 11
  store i32 %113, ptr %115, align 8
  %116 = load ptr, ptr %6, align 8
  %117 = load ptr, ptr %18, align 8
  call void @markNullableIfNeeded(ptr noundef %116, ptr noundef %117)
  %118 = load ptr, ptr %11, align 8
  %119 = load ptr, ptr %18, align 8
  %120 = call ptr @lappend(ptr noundef %118, ptr noundef %119)
  store ptr %120, ptr %11, align 8
  %121 = load ptr, ptr %10, align 8
  %122 = icmp ne ptr %121, null
  br i1 %122, label %123, label %129

123:                                              ; preds = %80
  %124 = load ptr, ptr %10, align 8
  %125 = load ptr, ptr %124, align 8
  %126 = load ptr, ptr %15, align 8
  %127 = call ptr @lappend(ptr noundef %125, ptr noundef %126)
  %128 = load ptr, ptr %10, align 8
  store ptr %127, ptr %128, align 8
  br label %129

129:                                              ; preds = %123, %80
  call void @llvm.lifetime.end.p0(i64 8, ptr %18) #8
  br label %131

130:                                              ; preds = %75
  br label %131

131:                                              ; preds = %130, %129
  br label %132

132:                                              ; preds = %131, %74
  %133 = load i32, ptr %12, align 4
  %134 = add i32 %133, 1
  store i32 %134, ptr %12, align 4
  call void @llvm.lifetime.end.p0(i64 8, ptr %17) #8
  call void @llvm.lifetime.end.p0(i64 8, ptr %16) #8
  call void @llvm.lifetime.end.p0(i64 8, ptr %15) #8
  br label %135

135:                                              ; preds = %132
  %136 = getelementptr inbounds nuw %struct.ForEachState, ptr %14, i32 0, i32 1
  %137 = load i32, ptr %136, align 8
  %138 = add i32 %137, 1
  store i32 %138, ptr %136, align 8
  br label %32, !llvm.loop !47

139:                                              ; preds = %57
  %140 = load ptr, ptr %11, align 8
  call void @llvm.lifetime.end.p0(i64 8, ptr %13) #8
  call void @llvm.lifetime.end.p0(i64 4, ptr %12) #8
  call void @llvm.lifetime.end.p0(i64 8, ptr %11) #8
  ret ptr %140
}