; Function Attrs: nounwind uwtable
define dso_local ptr @expandNSItemVars(ptr noundef readonly captures(none) %0, ptr noundef readonly captures(none) %1, i32 noundef %2, i32 noundef %3, ptr noundef captures(address_is_null) %4) local_unnamed_addr #0 {
  %.not = icmp eq ptr %4, null
  br i1 %.not, label %7, label %6

6:                                                ; preds = %5
  store ptr null, ptr %4, align 8
  br label %7

7:                                                ; preds = %6, %5
  %8 = load ptr, ptr %1, align 8
  %9 = getelementptr inbounds nuw i8, ptr %8, i64 16
  %10 = load ptr, ptr %9, align 8
  %11 = getelementptr inbounds nuw i8, ptr %10, i64 4
  %.not41 = icmp eq ptr %10, null
  br i1 %.not41, label %._crit_edge, label %.lr.ph

.lr.ph:                                           ; preds = %7
  %12 = getelementptr inbounds nuw i8, ptr %10, i64 16
  %13 = getelementptr inbounds nuw i8, ptr %1, i64 32
  %14 = load i32, ptr %11, align 4
  %15 = icmp sgt i32 %14, 0
  br i1 %15, label %.lr.ph56, label %._crit_edge

._crit_edge:                                      ; preds = %75, %.lr.ph, %7
  %.0.lcssa = phi ptr [ null, %7 ], [ null, %.lr.ph ], [ %.1, %75 ]
  ret ptr %.0.lcssa

.lr.ph56:                                         ; preds = %.lr.ph, %75
  %.04855 = phi ptr [ %.1, %75 ], [ null, %.lr.ph ]
  %indvars.iv54 = phi i64 [ %indvars.iv.next, %75 ], [ 0, %.lr.ph ]
  %16 = load ptr, ptr %12, align 8
  %17 = getelementptr inbounds nuw %union.ListCell, ptr %16, i64 %indvars.iv54
  %18 = load ptr, ptr %17, align 8
  %19 = load ptr, ptr %13, align 8
  %20 = getelementptr inbounds nuw %struct.ParseNamespaceColumn, ptr %19, i64 %indvars.iv54
  %21 = getelementptr inbounds nuw i8, ptr %20, i64 30
  %22 = load i8, ptr %21, align 2, !range !4, !noundef !5
  %23 = trunc nuw i8 %22 to i1
  br i1 %23, label %75, label %24

24:                                               ; preds = %.lr.ph56
  %25 = getelementptr inbounds nuw i8, ptr %18, i64 8
  %26 = load ptr, ptr %25, align 8
  %27 = load i8, ptr %26, align 1
  %.not43 = icmp eq i8 %27, 0
  br i1 %.not43, label %75, label %28

28:                                               ; preds = %24
  %29 = load i32, ptr %20, align 4
  %30 = getelementptr inbounds nuw i8, ptr %20, i64 4
  %31 = load i16, ptr %30, align 4
  %32 = getelementptr inbounds nuw i8, ptr %20, i64 8
  %33 = load i32, ptr %32, align 4
  %34 = getelementptr inbounds nuw i8, ptr %20, i64 12
  %35 = load i32, ptr %34, align 4
  %36 = getelementptr inbounds nuw i8, ptr %20, i64 16
  %37 = load i32, ptr %36, align 4
  %38 = tail call ptr @makeVar(i32 noundef %29, i16 noundef signext %31, i32 noundef %33, i32 noundef %35, i32 noundef %37, i32 noundef %2) #11
  %39 = getelementptr inbounds nuw i8, ptr %20, i64 20
  %40 = load i32, ptr %39, align 4
  %41 = getelementptr inbounds nuw i8, ptr %38, i64 36
  store i32 %40, ptr %41, align 4
  %42 = getelementptr inbounds nuw i8, ptr %20, i64 24
  %43 = load i32, ptr %42, align 4
  %44 = getelementptr inbounds nuw i8, ptr %38, i64 40
  store i32 %43, ptr %44, align 8
  %45 = getelementptr inbounds nuw i8, ptr %20, i64 28
  %46 = load i16, ptr %45, align 4
  %47 = getelementptr inbounds nuw i8, ptr %38, i64 44
  store i16 %46, ptr %47, align 4
  %48 = getelementptr inbounds nuw i8, ptr %38, i64 48
  store i32 %3, ptr %48, align 8
  %49 = getelementptr inbounds nuw i8, ptr %38, i64 4
  %50 = load i32, ptr %49, align 4
  %51 = getelementptr inbounds nuw i8, ptr %38, i64 32
  %52 = load i32, ptr %51, align 8
  %.not22.i = icmp eq i32 %52, 0
  br i1 %.not22.i, label %._crit_edge.i, label %.lr.ph.i

._crit_edge.i:                                    ; preds = %.lr.ph.i, %28
  %.014.lcssa.i = phi ptr [ %0, %28 ], [ %54, %.lr.ph.i ]
  %53 = icmp sgt i32 %50, 0
  br i1 %53, label %56, label %markNullableIfNeeded.exit

.lr.ph.i:                                         ; preds = %28, %.lr.ph.i
  %.021.i = phi i32 [ %55, %.lr.ph.i ], [ 0, %28 ]
  %.01420.i = phi ptr [ %54, %.lr.ph.i ], [ %0, %28 ]
  %54 = load ptr, ptr %.01420.i, align 8
  %55 = add nuw i32 %.021.i, 1
  %exitcond.not.i = icmp eq i32 %55, %52
  br i1 %exitcond.not.i, label %._crit_edge.i, label %.lr.ph.i, !llvm.loop !12

56:                                               ; preds = %._crit_edge.i
  %57 = getelementptr inbounds nuw i8, ptr %.014.lcssa.i, i64 48
  %58 = load ptr, ptr %57, align 8
  %.not.i.i = icmp eq ptr %58, null
  br i1 %.not.i.i, label %markNullableIfNeeded.exit, label %list_length.exit.i

list_length.exit.i:                               ; preds = %56
  %59 = getelementptr inbounds nuw i8, ptr %58, i64 4
  %60 = load i32, ptr %59, align 4
  %.not.i = icmp sgt i32 %50, %60
  br i1 %.not.i, label %markNullableIfNeeded.exit, label %61

61:                                               ; preds = %list_length.exit.i
  %62 = getelementptr i8, ptr %58, i64 16
  %.val.i = load ptr, ptr %62, align 8
  %63 = zext nneg i32 %50 to i64
  %64 = getelementptr %union.ListCell, ptr %.val.i, i64 %63
  %65 = getelementptr i8, ptr %64, i64 -8
  %66 = load ptr, ptr %65, align 8
  %.not16.i = icmp eq ptr %66, null
  br i1 %.not16.i, label %markNullableIfNeeded.exit, label %67

67:                                               ; preds = %61
  %68 = getelementptr inbounds nuw i8, ptr %38, i64 24
  %69 = load ptr, ptr %68, align 8
  %70 = tail call ptr @bms_union(ptr noundef %69, ptr noundef nonnull %66) #11
  store ptr %70, ptr %68, align 8
  br label %markNullableIfNeeded.exit

markNullableIfNeeded.exit:                        ; preds = %._crit_edge.i, %56, %list_length.exit.i, %61, %67
  %71 = tail call ptr @lappend(ptr noundef %.04855, ptr noundef %38) #11
  br i1 %.not, label %75, label %72

72:                                               ; preds = %markNullableIfNeeded.exit
  %73 = load ptr, ptr %4, align 8
  %74 = tail call ptr @lappend(ptr noundef %73, ptr noundef %18) #11
  store ptr %74, ptr %4, align 8
  br label %75

75:                                               ; preds = %markNullableIfNeeded.exit, %72, %24, %.lr.ph56
  %.1 = phi ptr [ %.04855, %.lr.ph56 ], [ %.04855, %24 ], [ %71, %72 ], [ %71, %markNullableIfNeeded.exit ]
  %indvars.iv.next = add nuw nsw i64 %indvars.iv54, 1
  %76 = load i32, ptr %11, align 4
  %77 = sext i32 %76 to i64
  %78 = icmp slt i64 %indvars.iv.next, %77
  br i1 %78, label %.lr.ph56, label %._crit_edge
}